; Function Attrs: mustprogress nofree norecurse nosync nounwind willreturn memory(argmem: readwrite) uwtable
define void @_ZN24CpuPpLongRangeNonbondeds20updateAfterPartitionERK9t_mdatoms(ptr nocapture noundef nonnull writeonly align 8 dereferenceable(216) %0, ptr nocapture noundef nonnull readonly align 8 dereferenceable(648) %1) local_unnamed_addr #10 align 2 {
  %3 = getelementptr inbounds i8, ptr %1, i64 640
  %4 = load i32, ptr %3, align 8
  %5 = getelementptr inbounds i8, ptr %0, i64 64
  store i32 %4, ptr %5, align 8
  %6 = getelementptr inbounds i8, ptr %1, i64 32
  %7 = load i32, ptr %6, align 8
  %8 = icmp ne i32 %7, 0
  %9 = getelementptr inbounds i8, ptr %0, i64 68
  %10 = zext i1 %8 to i8
  store i8 %10, ptr %9, align 4
  %11 = getelementptr inbounds i8, ptr %1, i64 176
  %12 = load ptr, ptr %11, align 8
  %13 = getelementptr inbounds i8, ptr %1, i64 184
  %14 = load ptr, ptr %13, align 8
  %15 = ptrtoint ptr %14 to i64
  %16 = ptrtoint ptr %12 to i64
  %17 = sub i64 %15, %16
  %18 = getelementptr inbounds i8, ptr %12, i64 %17
  %19 = getelementptr inbounds i8, ptr %0, i64 72
  store ptr %12, ptr %19, align 8
  %.sroa.218.0..sroa_idx = getelementptr inbounds i8, ptr %0, i64 80
  store ptr %18, ptr %.sroa.218.0..sroa_idx, align 8
  %20 = getelementptr inbounds i8, ptr %1, i64 192
  %21 = load ptr, ptr %20, align 8
  %22 = getelementptr inbounds i8, ptr %1, i64 200
  %23 = load ptr, ptr %22, align 8
  %24 = ptrtoint ptr %23 to i64
  %25 = ptrtoint ptr %21 to i64
  %26 = sub i64 %24, %25
  %27 = getelementptr inbounds i8, ptr %21, i64 %26
  %28 = getelementptr inbounds i8, ptr %0, i64 88
  store ptr %21, ptr %28, align 8
  %.sroa.216.0..sroa_idx = getelementptr inbounds i8, ptr %0, i64 96
  store ptr %27, ptr %.sroa.216.0..sroa_idx, align 8
  %29 = getelementptr inbounds i8, ptr %1, i64 208
  %30 = load ptr, ptr %29, align 8
  %31 = getelementptr inbounds i8, ptr %1, i64 216
  %32 = load ptr, ptr %31, align 8
  %33 = ptrtoint ptr %32 to i64
  %34 = ptrtoint ptr %30 to i64
  %35 = sub i64 %33, %34
  %36 = getelementptr inbounds i8, ptr %30, i64 %35
  %37 = getelementptr inbounds i8, ptr %0, i64 104
  store ptr %30, ptr %37, align 8
  %.sroa.214.0..sroa_idx = getelementptr inbounds i8, ptr %0, i64 112
  store ptr %36, ptr %.sroa.214.0..sroa_idx, align 8
  %38 = getelementptr inbounds i8, ptr %1, i64 232
  %39 = load ptr, ptr %38, align 8
  %40 = getelementptr inbounds i8, ptr %1, i64 240
  %41 = load ptr, ptr %40, align 8
  %42 = ptrtoint ptr %41 to i64
  %43 = ptrtoint ptr %39 to i64
  %44 = sub i64 %42, %43
  %45 = getelementptr inbounds i8, ptr %39, i64 %44
  %46 = getelementptr inbounds i8, ptr %0, i64 120
  store ptr %39, ptr %46, align 8
  %.sroa.212.0..sroa_idx = getelementptr inbounds i8, ptr %0, i64 128
  store ptr %45, ptr %.sroa.212.0..sroa_idx, align 8
  %47 = getelementptr inbounds i8, ptr %1, i64 256
  %48 = load ptr, ptr %47, align 8
  %49 = getelementptr inbounds i8, ptr %1, i64 264
  %50 = load ptr, ptr %49, align 8
  %51 = ptrtoint ptr %50 to i64
  %52 = ptrtoint ptr %48 to i64
  %53 = sub i64 %51, %52
  %54 = getelementptr inbounds i8, ptr %48, i64 %53
  %55 = getelementptr inbounds i8, ptr %0, i64 136
  store ptr %48, ptr %55, align 8
  %.sroa.210.0..sroa_idx = getelementptr inbounds i8, ptr %0, i64 144
  store ptr %54, ptr %.sroa.210.0..sroa_idx, align 8
  %56 = getelementptr inbounds i8, ptr %1, i64 280
  %57 = load ptr, ptr %56, align 8
  %58 = getelementptr inbounds i8, ptr %1, i64 288
  %59 = load ptr, ptr %58, align 8
  %60 = ptrtoint ptr %59 to i64
  %61 = ptrtoint ptr %57 to i64
  %62 = sub i64 %60, %61
  %63 = getelementptr inbounds i8, ptr %57, i64 %62
  %64 = getelementptr inbounds i8, ptr %0, i64 152
  store ptr %57, ptr %64, align 8
  %.sroa.2.0..sroa_idx = getelementptr inbounds i8, ptr %0, i64 160
  store ptr %63, ptr %.sroa.2.0..sroa_idx, align 8
  ret void
}